target datalayout = "e-m:e-p270:32:32-p271:32:32-p272:64:64-i64:64-i128:128-f80:128-n8:16:32:64-S128"
target triple = "x86_64-pc-linux-gnu"

%class.JfrAddRefCountedBlob = type { i8 }
%class.Position = type { ptr, ptr, ptr }

; Function Attrs: mustprogress nounwind uwtable
define linkonce_odr hidden void @_ZN8PositionI8StackObjE11set_end_posEPKh(ptr noundef nonnull align 8 dereferenceable(24) %0, ptr noundef %1) #1 comdat align 2 {
  %3 = alloca ptr, align 8
  %4 = alloca ptr, align 8
  store ptr %0, ptr %3, align 8
  store ptr %1, ptr %4, align 8
  %5 = load ptr, ptr %3, align 8
  %6 = load ptr, ptr %4, align 8
  %7 = getelementptr inbounds %class.Position, ptr %5, i32 0, i32 2
  store ptr %6, ptr %7, align 8
  ret void
}

; Function Attrs: mustprogress nounwind uwtable
define linkonce_odr hidden void @_ZN11StorageHostI7AdapterI18JfrCheckpointFlushE8StackObjE6cancelEv(ptr noundef nonnull align 8 dereferenceable(40) %0) #1 comdat align 2 {
  %2 = alloca ptr, align 8
  store ptr %0, ptr %2, align 8
  %3 = load ptr, ptr %2, align 8
  call void @_ZN8PositionI8StackObjE11set_end_posEPKh(ptr noundef nonnull align 8 dereferenceable(24) %3, ptr noundef null)
  ret void
}

; Function Attrs: mustprogress nounwind uwtable
define internal noundef zeroext i1 @_ZL19save_blob_predicatev() #1 {
  %1 = call noundef zeroext i1 @_ZN21JfrDeprecationManager20has_unresolved_entryEv()
  br i1 %1, label %4, label %2

2:                                                ; preds = %0
  %3 = call noundef zeroext i1 @_ZN13ObjectSampler20has_unresolved_entryEv()
  br label %4

4:                                                ; preds = %2, %0
  %5 = phi i1 [ true, %0 ], [ %3, %2 ]
  ret i1 %5
}

; Function Attrs: mustprogress nounwind uwtable
define hidden void @_ZN20JfrAddRefCountedBlobC2ER19JfrCheckpointWriterbb(ptr noundef nonnull align 1 dereferenceable(1) %0, ptr noundef nonnull align 8 dereferenceable(73) %1, i1 noundef zeroext %2, i1 noundef zeroext %3) unnamed_addr #1 align 2 {
  %5 = alloca ptr, align 8
  %6 = alloca ptr, align 8
  %7 = alloca i8, align 1
  %8 = alloca i8, align 1
  store ptr %0, ptr %5, align 8
  store ptr %1, ptr %6, align 8
  %9 = zext i1 %2 to i8
  store i8 %9, ptr %7, align 1
  %10 = zext i1 %3 to i8
  store i8 %10, ptr %8, align 1
  %11 = load ptr, ptr %5, align 8
  %12 = getelementptr inbounds %class.JfrAddRefCountedBlob, ptr %11, i32 0, i32 0
  %13 = load i8, ptr %8, align 1
  %14 = trunc i8 %13 to i1
  %15 = zext i1 %14 to i8
  store i8 %15, ptr %12, align 1
  %16 = load ptr, ptr %6, align 8
  %17 = call noundef zeroext i1 @_ZNK19JfrCheckpointWriter8has_dataEv(ptr noundef nonnull align 8 dereferenceable(73) %16)
  br i1 %17, label %18, label %31

18:                                               ; preds = %4
  %19 = call noundef zeroext i1 @_ZL19save_blob_predicatev()
  br i1 %19, label %20, label %24

20:                                               ; preds = %18
  %21 = load ptr, ptr %6, align 8
  %22 = load i8, ptr %7, align 1
  %23 = trunc i8 %22 to i1
  call void @_ZN26JfrReferenceCountedStorage9save_blobER19JfrCheckpointWriterb(ptr noundef nonnull align 8 dereferenceable(73) %21, i1 noundef zeroext %23)
  br label %30

24:                                               ; preds = %18
  %25 = load i8, ptr %7, align 1
  %26 = trunc i8 %25 to i1
  br i1 %26, label %27, label %29

27:                                               ; preds = %24
  %28 = load ptr, ptr %6, align 8
  call void @_ZN11StorageHostI7AdapterI18JfrCheckpointFlushE8StackObjE6cancelEv(ptr noundef nonnull align 8 dereferenceable(40) %28)
  br label %29

29:                                               ; preds = %27, %24
  br label %30

30:                                               ; preds = %29, %20
  br label %31

31:                                               ; preds = %30, %4
  ret void
}