; Function Attrs: mustprogress nounwind uwtable
define hidden void @_ZN20JfrAddRefCountedBlobC2ER19JfrCheckpointWriterbb(ptr nocapture noundef nonnull writeonly align 1 dereferenceable(1) %0, ptr noundef nonnull align 8 dereferenceable(73) %1, i1 noundef zeroext %2, i1 noundef zeroext %3) unnamed_addr #0 align 2 {
  %5 = zext i1 %3 to i8
  store i8 %5, ptr %0, align 1
  %6 = tail call noundef zeroext i1 @_ZNK19JfrCheckpointWriter8has_dataEv(ptr noundef nonnull align 8 dereferenceable(73) %1) #6
  br i1 %6, label %7, label %13

7:                                                ; preds = %4
  %8 = tail call noundef zeroext i1 @_ZN21JfrDeprecationManager20has_unresolved_entryEv() #6
  br i1 %8, label %_ZL19save_blob_predicatev.exit.thread, label %_ZL19save_blob_predicatev.exit

_ZL19save_blob_predicatev.exit:                   ; preds = %7
  %9 = tail call noundef zeroext i1 @_ZN13ObjectSampler20has_unresolved_entryEv() #6
  br i1 %9, label %_ZL19save_blob_predicatev.exit.thread, label %10

_ZL19save_blob_predicatev.exit.thread:            ; preds = %7, %_ZL19save_blob_predicatev.exit
  tail call void @_ZN26JfrReferenceCountedStorage9save_blobER19JfrCheckpointWriterb(ptr noundef nonnull align 8 dereferenceable(73) %1, i1 noundef zeroext %2)
  br label %13

10:                                               ; preds = %_ZL19save_blob_predicatev.exit
  br i1 %2, label %11, label %13

11:                                               ; preds = %10
  %12 = getelementptr inbounds i8, ptr %1, i64 16
  store ptr null, ptr %12, align 8
  br label %13

13:                                               ; preds = %_ZL19save_blob_predicatev.exit.thread, %11, %10, %4
  ret void
}